target datalayout = "e-m:e-p270:32:32-p271:32:32-p272:64:64-i64:64-i128:128-f80:128-n8:16:32:64-S128"
target triple = "x86_64-pc-linux-gnu"

%struct.darktable_t = type { %struct.dt_codepath_t, i32, i32, ptr, ptr, ptr, ptr, ptr, ptr, ptr, ptr, ptr, ptr, ptr, ptr, ptr, ptr, ptr, ptr, ptr, ptr, ptr, ptr, ptr, ptr, ptr, ptr, ptr, ptr, ptr, [64 x %struct.dt_pthread_mutex_t], %struct.dt_pthread_mutex_t, %struct.dt_pthread_mutex_t, %struct.dt_pthread_mutex_t, %struct.dt_pthread_mutex_t, %struct.dt_pthread_mutex_t, ptr, ptr, ptr, ptr, ptr, ptr, ptr, ptr, ptr, ptr, ptr, ptr, ptr, %struct.dt_lua_state_t, ptr, double, ptr, i32, [47 x i32], i32, i32, ptr, ptr, %struct.dt_sys_resources_t, %struct.dt_backthumb_t, %struct.dt_gimp_t }
%struct.dt_codepath_t = type { i8, [3 x i8] }
%struct.dt_pthread_mutex_t = type { %union.pthread_mutex_t }
%union.pthread_mutex_t = type { %struct.__pthread_mutex_s }
%struct.__pthread_mutex_s = type { i32, i32, i32, i32, i32, i16, i16, %struct.__pthread_internal_list }
%struct.__pthread_internal_list = type { ptr, ptr }
%struct.dt_lua_state_t = type { i32 }
%struct.dt_sys_resources_t = type { i64, i64, ptr, ptr, i32 }
%struct.dt_backthumb_t = type { double, double, i32, i32, i32, i32 }
%struct.dt_gimp_t = type { i32, ptr, ptr, i32, i32 }
%struct._DtBauhausWidget = type { %struct._GtkDrawingArea, i32, ptr, ptr, i32, [256 x i8], i32, ptr, i32, ptr, ptr, i32, ptr, i32, i32, i32, %struct._GtkBorder, %struct._GtkBorder, i32, %union.dt_bauhaus_data_t }
%struct._GtkDrawingArea = type { %struct._GtkWidget, ptr }
%struct._GtkWidget = type { %struct._GObject, ptr }
%struct._GObject = type { %struct._GTypeInstance, i32, ptr }
%struct._GTypeInstance = type { ptr }
%struct._GtkBorder = type { i16, i16, i16, i16 }
%union.dt_bauhaus_data_t = type { %struct.dt_bauhaus_slider_data_t }
%struct.dt_bauhaus_slider_data_t = type { float, float, float, float, float, float, float, float, float, float, i32, ptr, i32, ptr, i8, ptr, float, float, i8, i32, ptr }
%struct.dt_control_t = type { i32, ptr, %struct.dt_action_t, %struct.dt_action_t, %struct.dt_action_t, %struct.dt_action_t, %struct.dt_action_t, %struct.dt_action_t, %struct.dt_action_t, %struct.dt_action_t, %struct.dt_action_t, %struct.dt_action_t, %struct.dt_action_t, ptr, ptr, ptr, i32, ptr, i32, i32, ptr, ptr, [256 x i8], i32, double, i32, i32, i64, i32, i32, i32, double, double, i32, i32, i32, i32, i32, i32, [8 x [1000 x i8]], i32, i32, %struct.dt_pthread_mutex_t, i32, i32, [2 x [300 x i8]], i32, i32, %struct.dt_pthread_mutex_t, %struct.dt_pthread_mutex_t, %struct.dt_pthread_mutex_t, double, i32, i32, i32, %struct.dt_pthread_mutex_t, %struct.dt_pthread_mutex_t, %union.pthread_cond_t, i32, ptr, i64, i64, ptr, [5 x ptr], [5 x i64], %struct.dt_pthread_mutex_t, [3 x ptr], [3 x i8], [3 x i64], %struct.anon.0, %struct.anon.2 }
%struct.dt_action_t = type { i32, ptr, ptr, ptr, ptr, ptr }
%union.pthread_cond_t = type { %struct.__pthread_cond_s }
%struct.__pthread_cond_s = type { %union.__atomic_wide_counter, %union.__atomic_wide_counter, [2 x i32], [2 x i32], i32, i32, [2 x i32] }
%union.__atomic_wide_counter = type { i64 }
%struct.anon.0 = type { ptr, i64, i64, double, %struct.dt_pthread_mutex_t, %struct.anon.1 }
%struct.anon.1 = type { ptr, ptr, ptr, ptr, ptr, ptr }
%struct.anon.2 = type { %struct.anon.3 }
%struct.anon.3 = type { ptr, ptr }
%struct._GdkEventScroll = type { i32, ptr, i8, i32, double, double, i32, i32, ptr, double, double, double, double, i8 }
%struct.dt_lib_t = type { ptr, ptr, %struct.anon.7 }
%struct.anon.7 = type { %struct.anon.8, %struct.anon.9, %struct.anon.10, %struct.anon.11 }
%struct.anon.8 = type { ptr, ptr, ptr, ptr, ptr, i32, i32, i32, ptr, ptr, ptr, ptr, ptr }
%struct.anon.9 = type { ptr, ptr, i32 }
%struct.anon.10 = type { ptr }
%struct.anon.11 = type { i32 }

@darktable = external global %struct.darktable_t, align 8
@dt_modifier_shortcuts = external global i32, align 4

; Function Attrs: inlinehint nounwind uwtable
define internal ptr @dt_action_lib(ptr noundef %0) #4 {
  %2 = alloca ptr, align 8
  store ptr %0, ptr %2, align 8, !tbaa !214
  br label %3

3:                                                ; preds = %13, %1
  %4 = load ptr, ptr %2, align 8, !tbaa !214
  %5 = icmp ne ptr %4, null
  br i1 %5, label %6, label %11

6:                                                ; preds = %3
  %7 = load ptr, ptr %2, align 8, !tbaa !214
  %8 = getelementptr inbounds nuw %struct.dt_action_t, ptr %7, i32 0, i32 0
  %9 = load i32, ptr %8, align 8, !tbaa !216
  %10 = icmp ne i32 %9, 3
  br label %11

11:                                               ; preds = %6, %3
  %12 = phi i1 [ false, %3 ], [ %10, %6 ]
  br i1 %12, label %13, label %17

13:                                               ; preds = %11
  %14 = load ptr, ptr %2, align 8, !tbaa !214
  %15 = getelementptr inbounds nuw %struct.dt_action_t, ptr %14, i32 0, i32 4
  %16 = load ptr, ptr %15, align 8, !tbaa !352
  store ptr %16, ptr %2, align 8, !tbaa !214
  br label %3

17:                                               ; preds = %11
  %18 = load ptr, ptr %2, align 8, !tbaa !214
  ret ptr %18
}

; Function Attrs: inlinehint nounwind uwtable
define internal i32 @dt_modifier_is(i32 noundef %0, i32 noundef %1) #4 {
  %3 = alloca i32, align 4
  %4 = alloca i32, align 4
  %5 = alloca i32, align 4
  store i32 %0, ptr %3, align 4, !tbaa !13
  store i32 %1, ptr %4, align 4, !tbaa !13
  call void @llvm.lifetime.start.p0(i64 4, ptr %5) #13
  %6 = call i32 @gtk_accelerator_get_default_mod_mask()
  store i32 %6, ptr %5, align 4, !tbaa !13
  %7 = load i32, ptr %3, align 4, !tbaa !13
  %8 = load i32, ptr @dt_modifier_shortcuts, align 4, !tbaa !13
  %9 = or i32 %7, %8
  %10 = load i32, ptr %5, align 4, !tbaa !13
  %11 = and i32 %9, %10
  %12 = load i32, ptr %4, align 4, !tbaa !13
  %13 = icmp eq i32 %11, %12
  %14 = zext i1 %13 to i32
  call void @llvm.lifetime.end.p0(i64 4, ptr %5) #13
  ret i32 %14
}

; Function Attrs: nounwind uwtable
define internal void @_request_focus(ptr noundef %0) #0 {
  %2 = alloca ptr, align 8
  store ptr %0, ptr %2, align 8, !tbaa !17
  %3 = load ptr, ptr %2, align 8, !tbaa !17
  %4 = getelementptr inbounds nuw %struct._DtBauhausWidget, ptr %3, i32 0, i32 2
  %5 = load ptr, ptr %4, align 8, !tbaa !194
  %6 = icmp ne ptr %5, null
  br i1 %6, label %7, label %18

7:                                                ; preds = %1
  %8 = load ptr, ptr %2, align 8, !tbaa !17
  %9 = getelementptr inbounds nuw %struct._DtBauhausWidget, ptr %8, i32 0, i32 2
  %10 = load ptr, ptr %9, align 8, !tbaa !194
  %11 = getelementptr inbounds nuw %struct.dt_action_t, ptr %10, i32 0, i32 0
  %12 = load i32, ptr %11, align 8, !tbaa !216
  %13 = icmp eq i32 %12, 7
  br i1 %13, label %14, label %18

14:                                               ; preds = %7
  %15 = load ptr, ptr %2, align 8, !tbaa !17
  %16 = getelementptr inbounds nuw %struct._DtBauhausWidget, ptr %15, i32 0, i32 2
  %17 = load ptr, ptr %16, align 8, !tbaa !194
  call void @dt_iop_request_focus(ptr noundef %17)
  br label %32

18:                                               ; preds = %7, %1
  %19 = load ptr, ptr %2, align 8, !tbaa !17
  %20 = getelementptr inbounds nuw %struct._DtBauhausWidget, ptr %19, i32 0, i32 2
  %21 = load ptr, ptr %20, align 8, !tbaa !194
  %22 = call ptr @dt_action_lib(ptr noundef %21)
  %23 = icmp ne ptr %22, null
  br i1 %23, label %24, label %31

24:                                               ; preds = %18
  %25 = load ptr, ptr %2, align 8, !tbaa !17
  %26 = getelementptr inbounds nuw %struct._DtBauhausWidget, ptr %25, i32 0, i32 2
  %27 = load ptr, ptr %26, align 8, !tbaa !194
  %28 = call ptr @dt_action_lib(ptr noundef %27)
  %29 = load ptr, ptr getelementptr inbounds nuw (%struct.darktable_t, ptr @darktable, i32 0, i32 10), align 8, !tbaa !343
  %30 = getelementptr inbounds nuw %struct.dt_lib_t, ptr %29, i32 0, i32 1
  store ptr %28, ptr %30, align 8, !tbaa !344
  br label %31

31:                                               ; preds = %24, %18
  br label %32

32:                                               ; preds = %31, %14
  %33 = load ptr, ptr %2, align 8, !tbaa !17
  %34 = call i64 @gtk_widget_get_type() #14
  %35 = call ptr @g_type_check_instance_cast(ptr noundef %33, i64 noundef %34)
  call void @gtk_widget_set_state_flags(ptr noundef %35, i32 noundef 32, i32 noundef 0)
  ret void
}

; Function Attrs: nounwind uwtable
define internal i32 @_widget_scroll(ptr noundef %0, ptr noundef %1) #0 {
  %3 = alloca i32, align 4
  %4 = alloca ptr, align 8
  %5 = alloca ptr, align 8
  %6 = alloca i32, align 4
  %7 = alloca i32, align 4
  %8 = alloca ptr, align 8
  %9 = alloca i32, align 4
  store ptr %0, ptr %4, align 8, !tbaa !15
  store ptr %1, ptr %5, align 8, !tbaa !203
  %10 = load ptr, ptr %5, align 8, !tbaa !203
  %11 = call i32 @dt_gui_ignore_scroll(ptr noundef %10)
  %12 = icmp ne i32 %11, 0
  br i1 %12, label %13, label %14

13:                                               ; preds = %2
  store i32 0, ptr %3, align 4
  br label %83

14:                                               ; preds = %2
  %15 = load ptr, ptr getelementptr inbounds nuw (%struct.darktable_t, ptr @darktable, i32 0, i32 12), align 8, !tbaa !113
  %16 = getelementptr inbounds nuw %struct.dt_control_t, ptr %15, i32 0, i32 17
  %17 = load ptr, ptr %16, align 8, !tbaa !321
  %18 = icmp ne ptr %17, null
  br i1 %18, label %19, label %23

19:                                               ; preds = %14
  %20 = load ptr, ptr %4, align 8, !tbaa !15
  %21 = load ptr, ptr %5, align 8, !tbaa !203
  %22 = call i32 @dt_shortcut_dispatcher(ptr noundef %20, ptr noundef %21, ptr noundef null)
  store i32 %22, ptr %3, align 4
  br label %83

23:                                               ; preds = %14
  %24 = load ptr, ptr %4, align 8, !tbaa !15
  call void @gtk_widget_grab_focus(ptr noundef %24)
  call void @llvm.lifetime.start.p0(i64 4, ptr %6) #13
  store i32 0, ptr %6, align 4, !tbaa !13
  %25 = load ptr, ptr %5, align 8, !tbaa !203
  %26 = call i32 @dt_gui_get_scroll_unit_delta(ptr noundef %25, ptr noundef %6)
  %27 = icmp ne i32 %26, 0
  br i1 %27, label %28, label %81

28:                                               ; preds = %23
  %29 = load i32, ptr %6, align 4, !tbaa !13
  %30 = icmp eq i32 %29, 0
  br i1 %30, label %31, label %32

31:                                               ; preds = %28
  store i32 1, ptr %3, align 4
  store i32 1, ptr %7, align 4
  br label %82

32:                                               ; preds = %28
  call void @llvm.lifetime.start.p0(i64 8, ptr %8) #13
  %33 = load ptr, ptr %4, align 8, !tbaa !15
  store ptr %33, ptr %8, align 8, !tbaa !17
  %34 = load ptr, ptr %8, align 8, !tbaa !17
  call void @_request_focus(ptr noundef %34)
  %35 = load ptr, ptr %8, align 8, !tbaa !17
  %36 = getelementptr inbounds nuw %struct._DtBauhausWidget, ptr %35, i32 0, i32 1
  %37 = load i32, ptr %36, align 8, !tbaa !139
  %38 = icmp eq i32 %37, 1
  br i1 %38, label %39, label %77

39:                                               ; preds = %32
  call void @llvm.lifetime.start.p0(i64 4, ptr %9) #13
  %40 = load ptr, ptr getelementptr inbounds nuw (%struct.darktable_t, ptr @darktable, i32 0, i32 12), align 8, !tbaa !113
  %41 = getelementptr inbounds nuw %struct.dt_control_t, ptr %40, i32 0, i32 19
  %42 = load i32, ptr %41, align 4, !tbaa !322
  %43 = icmp eq i32 %42, 2
  br i1 %43, label %44, label %51

44:                                               ; preds = %39
  %45 = load ptr, ptr %5, align 8, !tbaa !203
  %46 = getelementptr inbounds nuw %struct._GdkEventScroll, ptr %45, i32 0, i32 1
  %47 = load ptr, ptr %46, align 8, !tbaa !323
  %48 = load ptr, ptr %4, align 8, !tbaa !15
  %49 = call ptr @gtk_widget_get_window(ptr noundef %48)
  %50 = icmp eq ptr %47, %49
  br label %51

51:                                               ; preds = %44, %39
  %52 = phi i1 [ false, %39 ], [ %50, %44 ]
  %53 = zext i1 %52 to i32
  store i32 %53, ptr %9, align 4, !tbaa !13
  %54 = load i32, ptr %9, align 4, !tbaa !13
  %55 = icmp ne i32 %54, 0
  br i1 %55, label %56, label %67

56:                                               ; preds = %51
  %57 = load ptr, ptr %5, align 8, !tbaa !203
  %58 = getelementptr inbounds nuw %struct._GdkEventScroll, ptr %57, i32 0, i32 6
  %59 = load i32, ptr %58, align 8, !tbaa !325
  %60 = call i32 @dt_modifier_is(i32 noundef %59, i32 noundef 5)
  %61 = icmp ne i32 %60, 0
  br i1 %61, label %62, label %67

62:                                               ; preds = %56
  %63 = load ptr, ptr %8, align 8, !tbaa !17
  %64 = load i32, ptr %6, align 4, !tbaa !13
  %65 = sitofp i32 %64 to float
  call void @_slider_zoom_range(ptr noundef %63, float noundef %65)
  %66 = load ptr, ptr %8, align 8, !tbaa !17
  call void @_slider_zoom_toast(ptr noundef %66)
  br label %76

67:                                               ; preds = %56, %51
  %68 = load ptr, ptr %4, align 8, !tbaa !15
  %69 = load i32, ptr %6, align 4, !tbaa !13
  %70 = sub nsw i32 0, %69
  %71 = sitofp i32 %70 to float
  %72 = load ptr, ptr %5, align 8, !tbaa !203
  %73 = getelementptr inbounds nuw %struct._GdkEventScroll, ptr %72, i32 0, i32 6
  %74 = load i32, ptr %73, align 8, !tbaa !325
  %75 = load i32, ptr %9, align 4, !tbaa !13
  call void @_slider_add_step(ptr noundef %68, float noundef %71, i32 noundef %74, i32 noundef %75)
  br label %76

76:                                               ; preds = %67, %62
  call void @llvm.lifetime.end.p0(i64 4, ptr %9) #13
  br label %80

77:                                               ; preds = %32
  %78 = load ptr, ptr %8, align 8, !tbaa !17
  %79 = load i32, ptr %6, align 4, !tbaa !13
  call void @_combobox_next_sensitive(ptr noundef %78, i32 noundef %79, i32 noundef 0, i32 noundef 0)
  br label %80

80:                                               ; preds = %77, %76
  call void @llvm.lifetime.end.p0(i64 8, ptr %8) #13
  br label %81

81:                                               ; preds = %80, %23
  store i32 1, ptr %3, align 4
  store i32 1, ptr %7, align 4
  br label %82

82:                                               ; preds = %81, %31
  call void @llvm.lifetime.end.p0(i64 4, ptr %6) #13
  br label %83

83:                                               ; preds = %82, %19, %13
  %84 = load i32, ptr %3, align 4
  ret i32 %84
}