; Function Attrs: nounwind uwtable
define internal i32 @_widget_scroll(ptr noundef %0, ptr noundef %1) #0 {
  %3 = alloca i32, align 4
  %4 = tail call i32 @dt_gui_ignore_scroll(ptr noundef %1) #19
  %.not = icmp eq i32 %4, 0
  br i1 %.not, label %5, label %63

5:                                                ; preds = %2
  %6 = load ptr, ptr getelementptr inbounds nuw (i8, ptr @darktable, i64 88), align 8, !tbaa !91
  %7 = getelementptr inbounds nuw i8, ptr %6, i64 576
  %8 = load ptr, ptr %7, align 8, !tbaa !266
  %.not18 = icmp eq ptr %8, null
  br i1 %.not18, label %11, label %9

9:                                                ; preds = %5
  %10 = tail call i32 @dt_shortcut_dispatcher(ptr noundef %0, ptr noundef %1, ptr noundef null) #19
  br label %63

11:                                               ; preds = %5
  tail call void @gtk_widget_grab_focus(ptr noundef %0) #19
  call void @llvm.lifetime.start.p0(i64 4, ptr nonnull %3) #19
  store i32 0, ptr %3, align 4, !tbaa !79
  %12 = call i32 @dt_gui_get_scroll_unit_delta(ptr noundef %1, ptr noundef nonnull %3) #19
  %.not19 = icmp eq i32 %12, 0
  %13 = load i32, ptr %3, align 4
  %14 = icmp eq i32 %13, 0
  %or.cond = select i1 %.not19, i1 true, i1 %14
  br i1 %or.cond, label %62, label %15

15:                                               ; preds = %11
  %16 = getelementptr inbounds nuw i8, ptr %0, i64 48
  %17 = load ptr, ptr %16, align 8, !tbaa !161
  %.not.i = icmp eq ptr %17, null
  br i1 %.not.i, label %_request_focus.exit, label %18

18:                                               ; preds = %15
  %19 = load i32, ptr %17, align 8, !tbaa !176
  switch i32 %19, label %.lr.ph.i [
    i32 7, label %20
    i32 3, label %.lr.ph.i8.i.preheader
  ]

.lr.ph.i8.i.preheader:                            ; preds = %.lr.ph.ithread-pre-split.i, %18
  br label %.lr.ph.i8.i

20:                                               ; preds = %18
  call void @dt_iop_request_focus(ptr noundef nonnull %17) #19
  br label %_request_focus.exit

.lr.ph.ithread-pre-split.i:                       ; preds = %.lr.ph.i
  %.pr.i = load i32, ptr %22, align 8, !tbaa !176
  %.not4.i.i = icmp eq i32 %.pr.i, 3
  br i1 %.not4.i.i, label %.lr.ph.i8.i.preheader, label %.lr.ph.i

.lr.ph.i:                                         ; preds = %18, %.lr.ph.ithread-pre-split.i
  %.06.i17.i = phi ptr [ %22, %.lr.ph.ithread-pre-split.i ], [ %17, %18 ]
  %21 = getelementptr inbounds nuw i8, ptr %.06.i17.i, i64 32
  %22 = load ptr, ptr %21, align 8, !tbaa !267
  %.not.i.i = icmp eq ptr %22, null
  br i1 %.not.i.i, label %_request_focus.exit, label %.lr.ph.ithread-pre-split.i

.lr.ph.i8.i:                                      ; preds = %.lr.ph.i8.i.preheader, %24
  %.06.i9.i = phi ptr [ %26, %24 ], [ %17, %.lr.ph.i8.i.preheader ]
  %23 = load i32, ptr %.06.i9.i, align 8, !tbaa !176
  %.not4.i10.i = icmp eq i32 %23, 3
  br i1 %.not4.i10.i, label %dt_action_lib.exit13.i, label %24

24:                                               ; preds = %.lr.ph.i8.i
  %25 = getelementptr inbounds nuw i8, ptr %.06.i9.i, i64 32
  %26 = load ptr, ptr %25, align 8, !tbaa !267
  %.not.i11.i = icmp eq ptr %26, null
  br i1 %.not.i11.i, label %dt_action_lib.exit13.i, label %.lr.ph.i8.i

dt_action_lib.exit13.i:                           ; preds = %24, %.lr.ph.i8.i
  %.0.lcssa.i12.i = phi ptr [ null, %24 ], [ %.06.i9.i, %.lr.ph.i8.i ]
  %27 = load ptr, ptr getelementptr inbounds nuw (i8, ptr @darktable, i64 72), align 8, !tbaa !268
  %28 = getelementptr inbounds nuw i8, ptr %27, i64 8
  store ptr %.0.lcssa.i12.i, ptr %28, align 8, !tbaa !269
  br label %_request_focus.exit

_request_focus.exit:                              ; preds = %.lr.ph.i, %15, %20, %dt_action_lib.exit13.i
  %29 = tail call i64 @gtk_widget_get_type() #20
  %30 = call ptr @g_type_check_instance_cast(ptr noundef %0, i64 noundef %29) #19
  call void @gtk_widget_set_state_flags(ptr noundef %30, i32 noundef 32, i32 noundef 0) #19
  %31 = getelementptr inbounds nuw i8, ptr %0, i64 40
  %32 = load i32, ptr %31, align 8, !tbaa !105
  %33 = icmp eq i32 %32, 1
  br i1 %33, label %34, label %60

34:                                               ; preds = %_request_focus.exit
  %35 = load ptr, ptr getelementptr inbounds nuw (i8, ptr @darktable, i64 88), align 8, !tbaa !91
  %36 = getelementptr inbounds nuw i8, ptr %35, i64 588
  %37 = load i32, ptr %36, align 4, !tbaa !265
  %38 = icmp eq i32 %37, 2
  br i1 %38, label %39, label %.thread

39:                                               ; preds = %34
  %40 = getelementptr inbounds nuw i8, ptr %1, i64 8
  %41 = load ptr, ptr %40, align 8, !tbaa !277
  %42 = call ptr @gtk_widget_get_window(ptr noundef nonnull %0) #19
  %43 = icmp eq ptr %41, %42
  br i1 %43, label %44, label %.thread

44:                                               ; preds = %39
  %45 = getelementptr inbounds nuw i8, ptr %1, i64 40
  %46 = load i32, ptr %45, align 8, !tbaa !279
  %47 = call i32 @gtk_accelerator_get_default_mod_mask() #19
  %48 = load i32, ptr @dt_modifier_shortcuts, align 4, !tbaa !79
  %49 = or i32 %48, %46
  %50 = and i32 %49, %47
  %.not22 = icmp eq i32 %50, 5
  br i1 %.not22, label %51, label %.thread

51:                                               ; preds = %44
  %52 = load i32, ptr %3, align 4, !tbaa !79
  %53 = sitofp i32 %52 to float
  call fastcc void @_slider_zoom_range(ptr noundef nonnull %0, float noundef %53)
  call fastcc void @_slider_zoom_toast(ptr noundef nonnull %0)
  br label %62

.thread:                                          ; preds = %34, %44, %39
  %54 = phi i32 [ 1, %44 ], [ 0, %39 ], [ 0, %34 ]
  %55 = load i32, ptr %3, align 4, !tbaa !79
  %56 = sub nsw i32 0, %55
  %57 = sitofp i32 %56 to float
  %58 = getelementptr inbounds nuw i8, ptr %1, i64 40
  %59 = load i32, ptr %58, align 8, !tbaa !279
  call fastcc void @_slider_add_step(ptr noundef nonnull %0, float noundef %57, i32 noundef %59, i32 noundef %54)
  br label %62

60:                                               ; preds = %_request_focus.exit
  %61 = load i32, ptr %3, align 4, !tbaa !79
  call fastcc void @_combobox_next_sensitive(ptr noundef nonnull %0, i32 noundef %61, i32 noundef 0, i32 noundef 0)
  br label %62

62:                                               ; preds = %11, %51, %.thread, %60
  call void @llvm.lifetime.end.p0(i64 4, ptr nonnull %3) #19
  br label %63

63:                                               ; preds = %2, %62, %9
  %.0 = phi i32 [ %10, %9 ], [ 1, %62 ], [ 0, %2 ]
  ret i32 %.0
}